; Function Attrs: mustprogress uwtable
define noundef ptr @mupGetVersion(ptr noundef %0) local_unnamed_addr #11 personality ptr @__gxx_personality_v0 {
  %2 = alloca %"class.std::__cxx11::basic_string", align 8
  %3 = alloca %"class.mu::ParserError", align 8
  %4 = load ptr, ptr %0, align 8, !tbaa !4
  call void @llvm.lifetime.start.p0(i64 32, ptr nonnull %2) #23
  invoke void @_ZNK2mu10ParserBase10GetVersionB5cxx11ENS_18EParserVersionInfoE(ptr dead_on_unwind nonnull writable sret(%"class.std::__cxx11::basic_string") align 8 %2, ptr noundef nonnull align 8 dereferenceable(596) %4, i32 noundef 1)
          to label %5 unwind label %14

5:                                                ; preds = %1
  %6 = load ptr, ptr %2, align 8, !tbaa !24
  %7 = call i32 (ptr, i64, ptr, ...) @snprintf(ptr noundef nonnull dereferenceable(1) @_ZL11s_tmpOutBuf, i64 noundef 2048, ptr noundef nonnull @.str.5, ptr noundef %6) #23
  %8 = load ptr, ptr %2, align 8, !tbaa !24
  %9 = getelementptr inbounds nuw i8, ptr %2, i64 16
  %10 = icmp eq ptr %8, %9
  br i1 %10, label %_ZNKSt7__cxx1112basic_stringIcSt11char_traitsIcESaIcEE11_M_is_localEv.exit.thread.i.i, label %_ZNKSt7__cxx1112basic_stringIcSt11char_traitsIcESaIcEE11_M_is_localEv.exit.i.i

_ZNKSt7__cxx1112basic_stringIcSt11char_traitsIcESaIcEE11_M_is_localEv.exit.thread.i.i: ; preds = %5
  %11 = getelementptr inbounds nuw i8, ptr %2, i64 8
  %12 = load i64, ptr %11, align 8, !tbaa !25
  %13 = icmp ult i64 %12, 16
  call void @llvm.assume(i1 %13)
  br label %_ZNSt7__cxx1112basic_stringIcSt11char_traitsIcESaIcEED2Ev.exit

_ZNKSt7__cxx1112basic_stringIcSt11char_traitsIcESaIcEE11_M_is_localEv.exit.i.i: ; preds = %5
  call void @_ZdlPv(ptr noundef %8) #26
  br label %_ZNSt7__cxx1112basic_stringIcSt11char_traitsIcESaIcEED2Ev.exit

_ZNSt7__cxx1112basic_stringIcSt11char_traitsIcESaIcEED2Ev.exit: ; preds = %_ZNKSt7__cxx1112basic_stringIcSt11char_traitsIcESaIcEE11_M_is_localEv.exit.thread.i.i, %_ZNKSt7__cxx1112basic_stringIcSt11char_traitsIcESaIcEE11_M_is_localEv.exit.i.i
  call void @llvm.lifetime.end.p0(i64 32, ptr nonnull %2) #23
  br label %50

14:                                               ; preds = %1
  %15 = landingpad { ptr, i32 }
          catch ptr @_ZTIN2mu11ParserErrorE
          catch ptr null
  %16 = extractvalue { ptr, i32 } %15, 0
  %17 = extractvalue { ptr, i32 } %15, 1
  call void @llvm.lifetime.end.p0(i64 32, ptr nonnull %2) #23
  %18 = call i32 @llvm.eh.typeid.for.p0(ptr nonnull @_ZTIN2mu11ParserErrorE) #23
  %19 = icmp eq i32 %17, %18
  %20 = call ptr @__cxa_begin_catch(ptr %16) #23
  br i1 %19, label %21, label %29

21:                                               ; preds = %14
  %22 = getelementptr inbounds nuw i8, ptr %0, i64 8
  %23 = invoke noundef nonnull align 8 dereferenceable(112) ptr @_ZN2mu11ParserErroraSERKS0_(ptr noundef nonnull align 8 dereferenceable(112) %22, ptr noundef nonnull align 8 dereferenceable(112) %20)
          to label %24 unwind label %47

24:                                               ; preds = %21
  %25 = getelementptr inbounds nuw i8, ptr %0, i64 128
  store i8 1, ptr %25, align 8, !tbaa !19
  %26 = getelementptr inbounds nuw i8, ptr %0, i64 120
  %27 = load ptr, ptr %26, align 8, !tbaa !20
  %.not29 = icmp eq ptr %27, null
  br i1 %.not29, label %49, label %28

28:                                               ; preds = %24
  invoke void %27(ptr noundef nonnull %0)
          to label %49 unwind label %47

29:                                               ; preds = %14
  call void @llvm.lifetime.start.p0(i64 112, ptr nonnull %3) #23
  invoke void @_ZN2mu11ParserErrorC1ENS_11EErrorCodesE(ptr noundef nonnull align 8 dereferenceable(112) %3, i32 noundef 39)
          to label %30 unwind label %38

30:                                               ; preds = %29
  %31 = getelementptr inbounds nuw i8, ptr %0, i64 8
  %32 = invoke noundef nonnull align 8 dereferenceable(112) ptr @_ZN2mu11ParserErroraSERKS0_(ptr noundef nonnull align 8 dereferenceable(112) %31, ptr noundef nonnull align 8 dereferenceable(112) %3)
          to label %33 unwind label %40

33:                                               ; preds = %30
  call void @_ZN2mu11ParserErrorD1Ev(ptr noundef nonnull align 8 dereferenceable(112) %3) #23
  call void @llvm.lifetime.end.p0(i64 112, ptr nonnull %3) #23
  %34 = getelementptr inbounds nuw i8, ptr %0, i64 128
  store i8 1, ptr %34, align 8, !tbaa !19
  %35 = getelementptr inbounds nuw i8, ptr %0, i64 120
  %36 = load ptr, ptr %35, align 8, !tbaa !20
  %.not = icmp eq ptr %36, null
  br i1 %.not, label %45, label %37

37:                                               ; preds = %33
  invoke void %36(ptr noundef nonnull %0)
          to label %45 unwind label %43

38:                                               ; preds = %29
  %39 = landingpad { ptr, i32 }
          cleanup
  br label %42

40:                                               ; preds = %30
  %41 = landingpad { ptr, i32 }
          cleanup
  call void @_ZN2mu11ParserErrorD1Ev(ptr noundef nonnull align 8 dereferenceable(112) %3) #23
  br label %42

42:                                               ; preds = %40, %38
  %.pn = phi { ptr, i32 } [ %41, %40 ], [ %39, %38 ]
  call void @llvm.lifetime.end.p0(i64 112, ptr nonnull %3) #23
  br label %46

43:                                               ; preds = %37
  %44 = landingpad { ptr, i32 }
          cleanup
  br label %46

45:                                               ; preds = %37, %33
  call void @__cxa_end_catch()
  br label %50

46:                                               ; preds = %43, %42
  %.pn27 = phi { ptr, i32 } [ %44, %43 ], [ %.pn, %42 ]
  invoke void @__cxa_end_catch()
          to label %51 unwind label %52

47:                                               ; preds = %28, %21
  %48 = landingpad { ptr, i32 }
          cleanup
  invoke void @__cxa_end_catch()
          to label %51 unwind label %52

49:                                               ; preds = %28, %24
  call void @__cxa_end_catch()
  br label %50

50:                                               ; preds = %45, %49, %_ZNSt7__cxx1112basic_stringIcSt11char_traitsIcESaIcEED2Ev.exit
  %.0 = phi ptr [ @_ZL11s_tmpOutBuf, %_ZNSt7__cxx1112basic_stringIcSt11char_traitsIcESaIcEED2Ev.exit ], [ @.str.6, %49 ], [ @.str.6, %45 ]
  ret ptr %.0

51:                                               ; preds = %47, %46
  %.pn30 = phi { ptr, i32 } [ %.pn27, %46 ], [ %48, %47 ]
  resume { ptr, i32 } %.pn30

52:                                               ; preds = %47, %46
  %53 = landingpad { ptr, i32 }
          catch ptr null
  %54 = extractvalue { ptr, i32 } %53, 0
  call void @__clang_call_terminate(ptr %54) #24
  unreachable
}